; Function Attrs: nofree norecurse nosync nounwind null_pointer_is_valid sspstrong memory(read, inaccessiblemem: none) uwtable
define ptr @wmem_tree_lookup32_ge(ptr noundef readonly captures(address_is_null) %0, i32 noundef %1) local_unnamed_addr #6 {
  %.not.i = icmp eq ptr %0, null
  br i1 %.not.i, label %wmem_tree_lookup32_ge_node.exit.thread, label %3

3:                                                ; preds = %2
  %4 = getelementptr inbounds nuw i8, ptr %0, i64 16
  %5 = load ptr, ptr %4, align 8
  %.not3946.i = icmp eq ptr %5, null
  br i1 %.not3946.i, label %wmem_tree_lookup32_ge_node.exit.thread, label %.lr.ph.i.preheader

.lr.ph.i.preheader:                               ; preds = %3
  %6 = getelementptr inbounds nuw i8, ptr %5, i64 24
  %7 = load ptr, ptr %6, align 8
  %8 = ptrtoint ptr %7 to i64
  %9 = trunc i64 %8 to i32
  %10 = icmp eq i32 %1, %9
  br i1 %10, label %wmem_tree_lookup32_ge_node.exit.thread6, label %.lr.ph

.lr.ph:                                           ; preds = %.lr.ph.i.preheader, %.lr.ph.i
  %11 = phi i32 [ %26, %.lr.ph.i ], [ %9, %.lr.ph.i.preheader ]
  %.047.i17 = phi ptr [ %.1.i, %.lr.ph.i ], [ %5, %.lr.ph.i.preheader ]
  %12 = icmp ult i32 %1, %11
  br i1 %12, label %13, label %17

13:                                               ; preds = %.lr.ph
  %14 = getelementptr inbounds nuw i8, ptr %.047.i17, i64 8
  %15 = load ptr, ptr %14, align 8
  %16 = icmp eq ptr %15, null
  br i1 %16, label %28, label %.lr.ph.i

17:                                               ; preds = %.lr.ph
  %18 = icmp ugt i32 %1, %11
  br i1 %18, label %19, label %.lr.ph.i

19:                                               ; preds = %17
  %20 = getelementptr inbounds nuw i8, ptr %.047.i17, i64 16
  %21 = load ptr, ptr %20, align 8
  %22 = icmp eq ptr %21, null
  br i1 %22, label %.thread, label %.lr.ph.i

.lr.ph.i:                                         ; preds = %19, %17, %13
  %.1.i = phi ptr [ %.047.i17, %17 ], [ %15, %13 ], [ %21, %19 ]
  %23 = getelementptr inbounds nuw i8, ptr %.1.i, i64 24
  %24 = load ptr, ptr %23, align 8
  %25 = ptrtoint ptr %24 to i64
  %26 = trunc i64 %25 to i32
  %27 = icmp eq i32 %1, %26
  br i1 %27, label %wmem_tree_lookup32_ge_node.exit, label %.lr.ph

28:                                               ; preds = %13
  %29 = load ptr, ptr %.047.i17, align 8
  %30 = icmp eq ptr %29, null
  br i1 %30, label %wmem_tree_lookup32_ge_node.exit, label %33

.thread:                                          ; preds = %19
  %31 = load ptr, ptr %.047.i17, align 8
  %32 = icmp eq ptr %31, null
  br i1 %32, label %wmem_tree_lookup32_ge_node.exit.thread, label %33

33:                                               ; preds = %.thread, %28
  %34 = phi ptr [ %31, %.thread ], [ %29, %28 ]
  %.not40.i = icmp ugt i32 %1, %11
  br i1 %.not40.i, label %35, label %wmem_tree_lookup32_ge_node.exit

35:                                               ; preds = %33
  %36 = getelementptr inbounds nuw i8, ptr %34, i64 16
  %37 = load ptr, ptr %36, align 8
  %38 = icmp eq ptr %.047.i17, %37
  br i1 %38, label %.preheader.i, label %wmem_tree_lookup32_ge_node.exit.thread6

.preheader.i:                                     ; preds = %35, %44
  %.250.i = phi ptr [ %45, %44 ], [ %.047.i17, %35 ]
  %39 = getelementptr inbounds nuw i8, ptr %.250.i, i64 24
  %40 = load ptr, ptr %39, align 8
  %41 = ptrtoint ptr %40 to i64
  %42 = trunc i64 %41 to i32
  %43 = icmp ult i32 %1, %42
  br i1 %43, label %wmem_tree_lookup32_ge_node.exit, label %44

44:                                               ; preds = %.preheader.i
  %45 = load ptr, ptr %.250.i, align 8
  %.not41.i = icmp eq ptr %45, null
  br i1 %.not41.i, label %wmem_tree_lookup32_ge_node.exit.thread, label %.preheader.i, !llvm.loop !15

wmem_tree_lookup32_ge_node.exit:                  ; preds = %.lr.ph.i, %.preheader.i, %28, %33
  %.030.i = phi ptr [ %.047.i17, %33 ], [ %.047.i17, %28 ], [ %.250.i, %.preheader.i ], [ %.1.i, %.lr.ph.i ]
  %46 = icmp eq ptr %.030.i, null
  br i1 %46, label %wmem_tree_lookup32_ge_node.exit.thread, label %wmem_tree_lookup32_ge_node.exit.thread6

wmem_tree_lookup32_ge_node.exit.thread6:          ; preds = %.lr.ph.i.preheader, %35, %wmem_tree_lookup32_ge_node.exit
  %.030.i8 = phi ptr [ %.030.i, %wmem_tree_lookup32_ge_node.exit ], [ %34, %35 ], [ %5, %.lr.ph.i.preheader ]
  %47 = getelementptr inbounds nuw i8, ptr %.030.i8, i64 32
  %48 = load ptr, ptr %47, align 8
  br label %wmem_tree_lookup32_ge_node.exit.thread

wmem_tree_lookup32_ge_node.exit.thread:           ; preds = %44, %.thread, %3, %2, %wmem_tree_lookup32_ge_node.exit, %wmem_tree_lookup32_ge_node.exit.thread6
  %.0 = phi ptr [ %48, %wmem_tree_lookup32_ge_node.exit.thread6 ], [ null, %wmem_tree_lookup32_ge_node.exit ], [ null, %2 ], [ null, %3 ], [ null, %.thread ], [ null, %44 ]
  ret ptr %.0
}